target datalayout = "e-m:e-p270:32:32-p271:32:32-p272:64:64-i64:64-i128:128-f80:128-n8:16:32:64-S128"
target triple = "x86_64-pc-linux-gnu"

%struct.strvec = type { ptr, i64, i64 }
%struct.strbuf = type { i64, i64, ptr }
%struct.commit = type { %struct.object, i64, ptr, ptr, i32 }
%struct.object = type { i32, %struct.object_id }
%struct.object_id = type { [32 x i8], i32 }
%struct.oidset = type { %struct.kh_oid_set }
%struct.kh_oid_set = type { i32, i32, i32, i32, ptr, ptr, ptr }
%struct.commit_stack = type { ptr, i64, i64 }
%struct.commit_list = type { ptr, ptr }
%struct.rev_info = type { ptr, %struct.object_array, ptr, %struct.object_array, %struct.rev_cmdline_info, %struct.list_objects_filter_options, %struct.ref_exclusions, ptr, ptr, ptr, %struct.pathspec, i32, i32, i32, i32, i64, i32, i32, %struct.date_mode, i32, i32, i32, i32, ptr, i32, i32, ptr, ptr, i32, ptr, ptr, %struct.ident_split, ptr, i32, ptr, ptr, ptr, i32, i32, i32, ptr, %struct.grep_opt, ptr, i32, i32, i64, i64, i64, i32, i32, ptr, ptr, ptr, %struct.diff_options, %struct.diff_options, ptr, %struct.decoration, %struct.decoration, %struct.decoration, %struct.display_notes_opt, ptr, ptr, ptr, ptr, ptr, i32, ptr, i32, i32, i32, %struct.decoration, ptr, ptr, ptr, ptr, ptr, ptr, ptr, i32, ptr, i32, ptr, %struct.oidset }
%struct.object_array = type { i32, i32, ptr }
%struct.rev_cmdline_info = type { i32, i32, ptr }
%struct.list_objects_filter_options = type { %struct.strbuf, i32, i8, ptr, i64, i64, i32, i64, i64, ptr }
%struct.ref_exclusions = type { %struct.string_list, %struct.strvec, i8 }
%struct.string_list = type { ptr, i64, i64, i8, ptr }
%struct.pathspec = type { i32, i8, i32, i32, ptr }
%struct.date_mode = type { i32, i32, ptr }
%struct.ident_split = type { ptr, ptr, ptr, ptr, ptr, ptr, ptr, ptr }
%struct.grep_opt = type { ptr, ptr, ptr, ptr, ptr, ptr, i32, i32, i32, i32, i32, i32, i32, i32, i32, i32, i32, i32, i32, i32, i32, i32, i32, i32, i32, i32, i32, i32, i32, i32, i32, i32, [9 x [75 x i8]], i32, i32, i32, i32, i32, i32, i32, ptr, ptr, ptr }
%struct.diff_options = type { ptr, ptr, i32, i32, ptr, i32, ptr, i64, i64, ptr, ptr, ptr, ptr, %struct.diff_flags, i32, i32, i32, i32, i32, i32, i32, i32, i32, i32, i32, i32, i32, i32, i32, i32, i32, i32, i32, i32, i32, i32, ptr, i32, ptr, i32, i32, ptr, i64, i64, i32, i32, i32, i32, ptr, i32, i32, ptr, i32, i32, ptr, ptr, i32, [3 x i8], %struct.pathspec, ptr, ptr, ptr, ptr, ptr, ptr, ptr, ptr, i32, ptr, i32, i32, ptr, ptr, i32 }
%struct.diff_flags = type { i32, i32, i32, i32, i32, i32, i32, i32, i32, i32, i32, i32, i32, i32, i32, i32, i32, i32, i32, i32, i32, i32, i32, i32, i32, i32, i32, i32, i32, i32, i32, i32, i32, i32, i32 }
%struct.display_notes_opt = type { i32, %struct.string_list }
%struct.decoration = type { ptr, i32, i32, ptr }

@.str.37 = private unnamed_addr constant [27 x i8] c"size_t overflow: %lu * %lu\00", align 1

; Function Attrs: inlinehint nounwind uwtable
define internal i64 @st_mult(i64 noundef %0, i64 noundef %1) #4 {
  %3 = alloca i64, align 8
  %4 = alloca i64, align 8
  store i64 %0, ptr %3, align 8, !tbaa !34
  store i64 %1, ptr %4, align 8, !tbaa !34
  %5 = load i64, ptr %3, align 8, !tbaa !34
  %6 = icmp ne i64 %5, 0
  br i1 %6, label %7, label %15

7:                                                ; preds = %2
  %8 = load i64, ptr %4, align 8, !tbaa !34
  %9 = load i64, ptr %3, align 8, !tbaa !34
  %10 = udiv i64 -1, %9
  %11 = icmp ugt i64 %8, %10
  br i1 %11, label %12, label %15

12:                                               ; preds = %7
  %13 = load i64, ptr %3, align 8, !tbaa !34
  %14 = load i64, ptr %4, align 8, !tbaa !34
  call void (ptr, ...) @die(ptr noundef @.str.37, i64 noundef %13, i64 noundef %14) #13
  unreachable

15:                                               ; preds = %7, %2
  %16 = load i64, ptr %3, align 8, !tbaa !34
  %17 = load i64, ptr %4, align 8, !tbaa !34
  %18 = mul i64 %16, %17
  ret i64 %18
}

; Function Attrs: nounwind uwtable
define internal void @commit_stack_push(ptr noundef %0, ptr noundef %1) #0 {
  %3 = alloca ptr, align 8
  %4 = alloca ptr, align 8
  store ptr %0, ptr %3, align 8, !tbaa !100
  store ptr %1, ptr %4, align 8, !tbaa !24
  br label %5

5:                                                ; preds = %2
  %6 = load ptr, ptr %3, align 8, !tbaa !100
  %7 = getelementptr inbounds nuw %struct.commit_stack, ptr %6, i32 0, i32 1
  %8 = load i64, ptr %7, align 8, !tbaa !96
  %9 = add i64 %8, 1
  %10 = load ptr, ptr %3, align 8, !tbaa !100
  %11 = getelementptr inbounds nuw %struct.commit_stack, ptr %10, i32 0, i32 2
  %12 = load i64, ptr %11, align 8, !tbaa !104
  %13 = icmp ugt i64 %9, %12
  br i1 %13, label %14, label %53

14:                                               ; preds = %5
  %15 = load ptr, ptr %3, align 8, !tbaa !100
  %16 = getelementptr inbounds nuw %struct.commit_stack, ptr %15, i32 0, i32 2
  %17 = load i64, ptr %16, align 8, !tbaa !104
  %18 = add i64 %17, 16
  %19 = mul i64 %18, 3
  %20 = udiv i64 %19, 2
  %21 = load ptr, ptr %3, align 8, !tbaa !100
  %22 = getelementptr inbounds nuw %struct.commit_stack, ptr %21, i32 0, i32 1
  %23 = load i64, ptr %22, align 8, !tbaa !96
  %24 = add i64 %23, 1
  %25 = icmp ult i64 %20, %24
  br i1 %25, label %26, label %33

26:                                               ; preds = %14
  %27 = load ptr, ptr %3, align 8, !tbaa !100
  %28 = getelementptr inbounds nuw %struct.commit_stack, ptr %27, i32 0, i32 1
  %29 = load i64, ptr %28, align 8, !tbaa !96
  %30 = add i64 %29, 1
  %31 = load ptr, ptr %3, align 8, !tbaa !100
  %32 = getelementptr inbounds nuw %struct.commit_stack, ptr %31, i32 0, i32 2
  store i64 %30, ptr %32, align 8, !tbaa !104
  br label %42

33:                                               ; preds = %14
  %34 = load ptr, ptr %3, align 8, !tbaa !100
  %35 = getelementptr inbounds nuw %struct.commit_stack, ptr %34, i32 0, i32 2
  %36 = load i64, ptr %35, align 8, !tbaa !104
  %37 = add i64 %36, 16
  %38 = mul i64 %37, 3
  %39 = udiv i64 %38, 2
  %40 = load ptr, ptr %3, align 8, !tbaa !100
  %41 = getelementptr inbounds nuw %struct.commit_stack, ptr %40, i32 0, i32 2
  store i64 %39, ptr %41, align 8, !tbaa !104
  br label %42

42:                                               ; preds = %33, %26
  %43 = load ptr, ptr %3, align 8, !tbaa !100
  %44 = getelementptr inbounds nuw %struct.commit_stack, ptr %43, i32 0, i32 0
  %45 = load ptr, ptr %44, align 8, !tbaa !103
  %46 = load ptr, ptr %3, align 8, !tbaa !100
  %47 = getelementptr inbounds nuw %struct.commit_stack, ptr %46, i32 0, i32 2
  %48 = load i64, ptr %47, align 8, !tbaa !104
  %49 = call i64 @st_mult(i64 noundef 8, i64 noundef %48)
  %50 = call ptr @xrealloc(ptr noundef %45, i64 noundef %49)
  %51 = load ptr, ptr %3, align 8, !tbaa !100
  %52 = getelementptr inbounds nuw %struct.commit_stack, ptr %51, i32 0, i32 0
  store ptr %50, ptr %52, align 8, !tbaa !103
  br label %53

53:                                               ; preds = %42, %5
  br label %54

54:                                               ; preds = %53
  %55 = load ptr, ptr %4, align 8, !tbaa !24
  %56 = load ptr, ptr %3, align 8, !tbaa !100
  %57 = getelementptr inbounds nuw %struct.commit_stack, ptr %56, i32 0, i32 0
  %58 = load ptr, ptr %57, align 8, !tbaa !103
  %59 = load ptr, ptr %3, align 8, !tbaa !100
  %60 = getelementptr inbounds nuw %struct.commit_stack, ptr %59, i32 0, i32 1
  %61 = load i64, ptr %60, align 8, !tbaa !96
  %62 = add i64 %61, 1
  store i64 %62, ptr %60, align 8, !tbaa !96
  %63 = getelementptr inbounds nuw ptr, ptr %58, i64 %61
  store ptr %55, ptr %63, align 8, !tbaa !24
  ret void
}

; Function Attrs: nounwind uwtable
define internal void @mark_one_parent_uninteresting(ptr noundef %0, ptr noundef %1, ptr noundef %2) #0 {
  %4 = alloca ptr, align 8
  %5 = alloca ptr, align 8
  %6 = alloca ptr, align 8
  %7 = alloca ptr, align 8
  %8 = alloca i32, align 4
  store ptr %0, ptr %4, align 8, !tbaa !88
  store ptr %1, ptr %5, align 8, !tbaa !24
  store ptr %2, ptr %6, align 8, !tbaa !100
  call void @llvm.lifetime.start.p0(i64 8, ptr %7) #12
  %9 = load ptr, ptr %5, align 8, !tbaa !24
  %10 = getelementptr inbounds nuw %struct.commit, ptr %9, i32 0, i32 0
  %11 = load i32, ptr %10, align 8
  %12 = lshr i32 %11, 4
  %13 = and i32 %12, 2
  %14 = icmp ne i32 %13, 0
  br i1 %14, label %15, label %16

15:                                               ; preds = %3
  store i32 1, ptr %8, align 4
  br label %55

16:                                               ; preds = %3
  %17 = load ptr, ptr %5, align 8, !tbaa !24
  %18 = getelementptr inbounds nuw %struct.commit, ptr %17, i32 0, i32 0
  %19 = load i32, ptr %18, align 8
  %20 = lshr i32 %19, 4
  %21 = or i32 %20, 2
  %22 = load i32, ptr %18, align 8
  %23 = and i32 %21, 268435455
  %24 = shl i32 %23, 4
  %25 = and i32 %22, 15
  %26 = or i32 %25, %24
  store i32 %26, ptr %18, align 8
  %27 = load ptr, ptr %5, align 8, !tbaa !24
  %28 = getelementptr inbounds nuw %struct.commit, ptr %27, i32 0, i32 2
  %29 = load ptr, ptr %28, align 8, !tbaa !90
  store ptr %29, ptr %7, align 8, !tbaa !91
  br label %30

30:                                               ; preds = %50, %16
  %31 = load ptr, ptr %7, align 8, !tbaa !91
  %32 = icmp ne ptr %31, null
  br i1 %32, label %33, label %54

33:                                               ; preds = %30
  %34 = load ptr, ptr %6, align 8, !tbaa !100
  %35 = load ptr, ptr %7, align 8, !tbaa !91
  %36 = getelementptr inbounds nuw %struct.commit_list, ptr %35, i32 0, i32 0
  %37 = load ptr, ptr %36, align 8, !tbaa !92
  call void @commit_stack_push(ptr noundef %34, ptr noundef %37)
  %38 = load ptr, ptr %4, align 8, !tbaa !88
  %39 = icmp ne ptr %38, null
  br i1 %39, label %40, label %49

40:                                               ; preds = %33
  %41 = load ptr, ptr %4, align 8, !tbaa !88
  %42 = getelementptr inbounds nuw %struct.rev_info, ptr %41, i32 0, i32 15
  %43 = load i64, ptr %42, align 8
  %44 = lshr i64 %43, 39
  %45 = and i64 %44, 1
  %46 = trunc i64 %45 to i32
  %47 = icmp ne i32 %46, 0
  br i1 %47, label %48, label %49

48:                                               ; preds = %40
  br label %54

49:                                               ; preds = %40, %33
  br label %50

50:                                               ; preds = %49
  %51 = load ptr, ptr %7, align 8, !tbaa !91
  %52 = getelementptr inbounds nuw %struct.commit_list, ptr %51, i32 0, i32 1
  %53 = load ptr, ptr %52, align 8, !tbaa !94
  store ptr %53, ptr %7, align 8, !tbaa !91
  br label %30, !llvm.loop !102

54:                                               ; preds = %48, %30
  store i32 0, ptr %8, align 4
  br label %55

55:                                               ; preds = %54, %15
  call void @llvm.lifetime.end.p0(i64 8, ptr %7) #12
  %56 = load i32, ptr %8, align 4
  switch i32 %56, label %58 [
    i32 0, label %57
    i32 1, label %57
  ]

57:                                               ; preds = %55, %55
  ret void

58:                                               ; preds = %55
  unreachable
}