; Function Attrs: nounwind uwtable
define internal fastcc void @mark_one_parent_uninteresting(ptr noundef readonly %0, ptr noundef captures(none) %1, ptr noundef nonnull captures(none) %2) unnamed_addr #2 {
  %4 = load i32, ptr %1, align 8
  %5 = and i32 %4, 32
  %.not = icmp eq i32 %5, 0
  br i1 %.not, label %6, label %.loopexit

6:                                                ; preds = %3
  %7 = or disjoint i32 %4, 32
  store i32 %7, ptr %1, align 8
  %8 = getelementptr inbounds nuw i8, ptr %1, i64 48
  %.013 = load ptr, ptr %8, align 8, !tbaa !58
  %.not1014 = icmp eq ptr %.013, null
  br i1 %.not1014, label %.loopexit, label %.lr.ph

.lr.ph:                                           ; preds = %6
  %9 = getelementptr inbounds nuw i8, ptr %2, i64 8
  %10 = getelementptr inbounds nuw i8, ptr %2, i64 16
  %.not11 = icmp eq ptr %0, null
  %11 = getelementptr inbounds nuw i8, ptr %0, i64 288
  %.pre19 = load i64, ptr %9, align 8, !tbaa !63
  br i1 %.not11, label %.lr.ph.split.us, label %.lr.ph.split

.lr.ph.split.us:                                  ; preds = %.lr.ph, %commit_stack_push.exit.us
  %12 = phi i64 [ %.pre-phi.i.us, %commit_stack_push.exit.us ], [ %.pre19, %.lr.ph ]
  %.015.us = phi ptr [ %.0.us, %commit_stack_push.exit.us ], [ %.013, %.lr.ph ]
  %13 = load ptr, ptr %.015.us, align 8, !tbaa !59
  %14 = add i64 %12, 1
  %15 = load i64, ptr %10, align 8, !tbaa !69
  %16 = icmp ugt i64 %14, %15
  br i1 %16, label %17, label %._crit_edge.i.us

._crit_edge.i.us:                                 ; preds = %.lr.ph.split.us
  %.pre.i.us = load ptr, ptr %2, align 8, !tbaa !66
  br label %commit_stack_push.exit.us

17:                                               ; preds = %.lr.ph.split.us
  %18 = mul i64 %15, 3
  %19 = add i64 %18, 48
  %20 = lshr i64 %19, 1
  %..i.us = tail call i64 @llvm.umax.i64(i64 %20, i64 %14)
  store i64 %..i.us, ptr %10, align 8, !tbaa !69
  %mul.ov.i.i.us = icmp ugt i64 %..i.us, 2305843009213693951
  br i1 %mul.ov.i.i.us, label %.split.us, label %st_mult.exit.i.us

st_mult.exit.i.us:                                ; preds = %17
  %21 = load ptr, ptr %2, align 8, !tbaa !66
  %22 = shl nuw i64 %..i.us, 3
  %23 = tail call ptr @xrealloc(ptr noundef %21, i64 noundef %22) #26
  store ptr %23, ptr %2, align 8, !tbaa !66
  %.pre16.i.us = load i64, ptr %9, align 8, !tbaa !63
  %.pre17.i.us = add i64 %.pre16.i.us, 1
  br label %commit_stack_push.exit.us

commit_stack_push.exit.us:                        ; preds = %st_mult.exit.i.us, %._crit_edge.i.us
  %.pre-phi.i.us = phi i64 [ %14, %._crit_edge.i.us ], [ %.pre17.i.us, %st_mult.exit.i.us ]
  %24 = phi i64 [ %12, %._crit_edge.i.us ], [ %.pre16.i.us, %st_mult.exit.i.us ]
  %25 = phi ptr [ %.pre.i.us, %._crit_edge.i.us ], [ %23, %st_mult.exit.i.us ]
  store i64 %.pre-phi.i.us, ptr %9, align 8, !tbaa !63
  %26 = getelementptr inbounds nuw ptr, ptr %25, i64 %24
  store ptr %13, ptr %26, align 8, !tbaa !67
  %27 = getelementptr inbounds nuw i8, ptr %.015.us, i64 8
  %.0.us = load ptr, ptr %27, align 8, !tbaa !58
  %.not10.us = icmp eq ptr %.0.us, null
  br i1 %.not10.us, label %.loopexit, label %.lr.ph.split.us, !llvm.loop !70

.lr.ph.split:                                     ; preds = %.lr.ph, %45
  %28 = phi i64 [ %.pre-phi.i, %45 ], [ %.pre19, %.lr.ph ]
  %.015 = phi ptr [ %.0, %45 ], [ %.013, %.lr.ph ]
  %29 = load ptr, ptr %.015, align 8, !tbaa !59
  %30 = add i64 %28, 1
  %31 = load i64, ptr %10, align 8, !tbaa !69
  %32 = icmp ugt i64 %30, %31
  br i1 %32, label %33, label %._crit_edge.i

._crit_edge.i:                                    ; preds = %.lr.ph.split
  %.pre.i = load ptr, ptr %2, align 8, !tbaa !66
  br label %commit_stack_push.exit

33:                                               ; preds = %.lr.ph.split
  %34 = mul i64 %31, 3
  %35 = add i64 %34, 48
  %36 = lshr i64 %35, 1
  %..i = tail call i64 @llvm.umax.i64(i64 %36, i64 %30)
  store i64 %..i, ptr %10, align 8, !tbaa !69
  %mul.ov.i.i = icmp ugt i64 %..i, 2305843009213693951
  br i1 %mul.ov.i.i, label %.split.us, label %st_mult.exit.i

.split.us:                                        ; preds = %33, %17
  %.us-phi = phi i64 [ %..i.us, %17 ], [ %..i, %33 ]
  tail call void (ptr, ...) @die(ptr noundef nonnull @.str.37, i64 noundef 8, i64 noundef %.us-phi) #28
  unreachable

st_mult.exit.i:                                   ; preds = %33
  %37 = load ptr, ptr %2, align 8, !tbaa !66
  %38 = shl nuw i64 %..i, 3
  %39 = tail call ptr @xrealloc(ptr noundef %37, i64 noundef %38) #26
  store ptr %39, ptr %2, align 8, !tbaa !66
  %.pre16.i = load i64, ptr %9, align 8, !tbaa !63
  %.pre17.i = add i64 %.pre16.i, 1
  br label %commit_stack_push.exit

commit_stack_push.exit:                           ; preds = %._crit_edge.i, %st_mult.exit.i
  %.pre-phi.i = phi i64 [ %30, %._crit_edge.i ], [ %.pre17.i, %st_mult.exit.i ]
  %40 = phi i64 [ %28, %._crit_edge.i ], [ %.pre16.i, %st_mult.exit.i ]
  %41 = phi ptr [ %.pre.i, %._crit_edge.i ], [ %39, %st_mult.exit.i ]
  store i64 %.pre-phi.i, ptr %9, align 8, !tbaa !63
  %42 = getelementptr inbounds nuw ptr, ptr %41, i64 %40
  store ptr %29, ptr %42, align 8, !tbaa !67
  %43 = load i64, ptr %11, align 8
  %44 = and i64 %43, 549755813888
  %.not12 = icmp eq i64 %44, 0
  br i1 %.not12, label %45, label %.loopexit

45:                                               ; preds = %commit_stack_push.exit
  %46 = getelementptr inbounds nuw i8, ptr %.015, i64 8
  %.0 = load ptr, ptr %46, align 8, !tbaa !58
  %.not10 = icmp eq ptr %.0, null
  br i1 %.not10, label %.loopexit, label %.lr.ph.split, !llvm.loop !70

.loopexit:                                        ; preds = %commit_stack_push.exit, %45, %commit_stack_push.exit.us, %6, %3
  ret void
}